; Function Attrs: mustprogress nounwind uwtable
define noundef i32 @_Z25Gia_ManSatAndCollect2_recP10Gia_Man_t_iP10Vec_Int_t_S2_(ptr noundef %0, i32 noundef %1, ptr noundef %2, ptr noundef %3) local_unnamed_addr #0 {
  %5 = getelementptr i8, ptr %0, i64 400
  %.val33 = load ptr, ptr %5, align 8, !tbaa !151
  %6 = sext i32 %1 to i64
  %7 = getelementptr inbounds i32, ptr %.val33, i64 %6
  %8 = load i32, ptr %7, align 4, !tbaa !6
  %9 = icmp sgt i32 %8, -1
  br i1 %9, label %92, label %10

10:                                               ; preds = %4
  %11 = getelementptr i8, ptr %0, i64 32
  %.val31 = load ptr, ptr %11, align 8, !tbaa !174
  %12 = getelementptr inbounds %struct.Gia_Obj_t_, ptr %.val31, i64 %6
  %.val34 = load i64, ptr %12, align 4
  %13 = and i64 %.val34, 2147483648
  %.not.i = icmp ne i64 %13, 0
  %14 = and i64 %.val34, 536870911
  %15 = icmp eq i64 %14, 536870911
  %narrow.i.not = or i1 %.not.i, %15
  br i1 %narrow.i.not, label %26, label %16

16:                                               ; preds = %10
  %17 = trunc i64 %.val34 to i32
  %18 = and i32 %17, 536870911
  %19 = sub nsw i32 %1, %18
  %20 = tail call noundef i32 @_Z25Gia_ManSatAndCollect2_recP10Gia_Man_t_iP10Vec_Int_t_S2_(ptr noundef nonnull %0, i32 noundef %19, ptr noundef %2, ptr noundef %3)
  %.val35 = load i64, ptr %12, align 4
  %21 = lshr i64 %.val35, 32
  %22 = trunc nuw i64 %21 to i32
  %23 = and i32 %22, 536870911
  %24 = sub nsw i32 %1, %23
  %25 = tail call noundef i32 @_Z25Gia_ManSatAndCollect2_recP10Gia_Man_t_iP10Vec_Int_t_S2_(ptr noundef nonnull %0, i32 noundef %24, ptr noundef %2, ptr noundef %3)
  br label %26

26:                                               ; preds = %16, %10
  %27 = getelementptr i8, ptr %2, i64 4
  %.val = load i32, ptr %27, align 4, !tbaa !149
  %28 = load i32, ptr %2, align 8, !tbaa !150
  %29 = icmp eq i32 %.val, %28
  br i1 %29, label %30, label %._ZL11Vec_IntGrowP10Vec_Int_t_i.exit10_crit_edge.i

._ZL11Vec_IntGrowP10Vec_Int_t_i.exit10_crit_edge.i: ; preds = %26
  %.phi.trans.insert.i = getelementptr inbounds nuw i8, ptr %2, i64 8
  %.pre.i = load ptr, ptr %.phi.trans.insert.i, align 8, !tbaa !151
  br label %_ZL11Vec_IntPushP10Vec_Int_t_i.exit

30:                                               ; preds = %26
  %31 = icmp slt i32 %.val, 16
  br i1 %31, label %32, label %40

32:                                               ; preds = %30
  %33 = getelementptr inbounds nuw i8, ptr %2, i64 8
  %34 = load ptr, ptr %33, align 8, !tbaa !151
  %.not9.i.i = icmp eq ptr %34, null
  br i1 %.not9.i.i, label %37, label %35

35:                                               ; preds = %32
  %36 = tail call dereferenceable_or_null(64) ptr @realloc(ptr noundef nonnull %34, i64 noundef 64) #31
  br label %_ZL11Vec_IntGrowP10Vec_Int_t_i.exit.i

37:                                               ; preds = %32
  %38 = tail call noalias dereferenceable_or_null(64) ptr @malloc(i64 noundef 64) #33
  br label %_ZL11Vec_IntGrowP10Vec_Int_t_i.exit.i

_ZL11Vec_IntGrowP10Vec_Int_t_i.exit.i:            ; preds = %37, %35
  %39 = phi ptr [ %36, %35 ], [ %38, %37 ]
  store ptr %39, ptr %33, align 8, !tbaa !151
  store i32 16, ptr %2, align 8, !tbaa !150
  br label %_ZL11Vec_IntPushP10Vec_Int_t_i.exit

40:                                               ; preds = %30
  %41 = shl nuw nsw i32 %.val, 1
  %42 = getelementptr inbounds nuw i8, ptr %2, i64 8
  %43 = load ptr, ptr %42, align 8, !tbaa !151
  %.not9.i9.i = icmp eq ptr %43, null
  %44 = zext nneg i32 %41 to i64
  %45 = shl nuw nsw i64 %44, 2
  br i1 %.not9.i9.i, label %48, label %46

46:                                               ; preds = %40
  %47 = tail call ptr @realloc(ptr noundef nonnull %43, i64 noundef %45) #31
  br label %50

48:                                               ; preds = %40
  %49 = tail call noalias ptr @malloc(i64 noundef %45) #33
  br label %50

50:                                               ; preds = %48, %46
  %51 = phi ptr [ %47, %46 ], [ %49, %48 ]
  store ptr %51, ptr %42, align 8, !tbaa !151
  store i32 %41, ptr %2, align 8, !tbaa !150
  br label %_ZL11Vec_IntPushP10Vec_Int_t_i.exit

_ZL11Vec_IntPushP10Vec_Int_t_i.exit:              ; preds = %._ZL11Vec_IntGrowP10Vec_Int_t_i.exit10_crit_edge.i, %_ZL11Vec_IntGrowP10Vec_Int_t_i.exit.i, %50
  %52 = phi ptr [ %.pre.i, %._ZL11Vec_IntGrowP10Vec_Int_t_i.exit10_crit_edge.i ], [ %51, %50 ], [ %39, %_ZL11Vec_IntGrowP10Vec_Int_t_i.exit.i ]
  %53 = load i32, ptr %27, align 4, !tbaa !149
  %54 = add nsw i32 %53, 1
  store i32 %54, ptr %27, align 4, !tbaa !149
  %55 = sext i32 %53 to i64
  %56 = getelementptr inbounds i32, ptr %52, i64 %55
  store i32 %1, ptr %56, align 4, !tbaa !6
  %.val36 = load ptr, ptr %5, align 8, !tbaa !151
  %57 = getelementptr inbounds i32, ptr %.val36, i64 %6
  store i32 %.val, ptr %57, align 4, !tbaa !6
  %.not29 = icmp eq ptr %3, null
  br i1 %.not29, label %92, label %58

58:                                               ; preds = %_ZL11Vec_IntPushP10Vec_Int_t_i.exit
  %.val37 = load i64, ptr %12, align 4
  %59 = and i64 %.val37, 2684354559
  %narrow.i38.not = icmp eq i64 %59, 2684354559
  br i1 %narrow.i38.not, label %60, label %92

60:                                               ; preds = %58
  %61 = getelementptr inbounds nuw i8, ptr %3, i64 4
  %62 = load i32, ptr %61, align 4, !tbaa !149
  %63 = load i32, ptr %3, align 8, !tbaa !150
  %64 = icmp eq i32 %62, %63
  br i1 %64, label %65, label %._ZL11Vec_IntGrowP10Vec_Int_t_i.exit10_crit_edge.i39

._ZL11Vec_IntGrowP10Vec_Int_t_i.exit10_crit_edge.i39: ; preds = %60
  %.phi.trans.insert.i40 = getelementptr inbounds nuw i8, ptr %3, i64 8
  %.pre.i41 = load ptr, ptr %.phi.trans.insert.i40, align 8, !tbaa !151
  br label %_ZL11Vec_IntPushP10Vec_Int_t_i.exit45

65:                                               ; preds = %60
  %66 = icmp slt i32 %62, 16
  br i1 %66, label %67, label %75

67:                                               ; preds = %65
  %68 = getelementptr inbounds nuw i8, ptr %3, i64 8
  %69 = load ptr, ptr %68, align 8, !tbaa !151
  %.not9.i.i43 = icmp eq ptr %69, null
  br i1 %.not9.i.i43, label %72, label %70

70:                                               ; preds = %67
  %71 = tail call dereferenceable_or_null(64) ptr @realloc(ptr noundef nonnull %69, i64 noundef 64) #31
  br label %_ZL11Vec_IntGrowP10Vec_Int_t_i.exit.i44

72:                                               ; preds = %67
  %73 = tail call noalias dereferenceable_or_null(64) ptr @malloc(i64 noundef 64) #33
  br label %_ZL11Vec_IntGrowP10Vec_Int_t_i.exit.i44

_ZL11Vec_IntGrowP10Vec_Int_t_i.exit.i44:          ; preds = %72, %70
  %74 = phi ptr [ %71, %70 ], [ %73, %72 ]
  store ptr %74, ptr %68, align 8, !tbaa !151
  store i32 16, ptr %3, align 8, !tbaa !150
  br label %_ZL11Vec_IntPushP10Vec_Int_t_i.exit45

75:                                               ; preds = %65
  %76 = shl nuw nsw i32 %62, 1
  %77 = getelementptr inbounds nuw i8, ptr %3, i64 8
  %78 = load ptr, ptr %77, align 8, !tbaa !151
  %.not9.i9.i42 = icmp eq ptr %78, null
  %79 = zext nneg i32 %76 to i64
  %80 = shl nuw nsw i64 %79, 2
  br i1 %.not9.i9.i42, label %83, label %81

81:                                               ; preds = %75
  %82 = tail call ptr @realloc(ptr noundef nonnull %78, i64 noundef %80) #31
  br label %85

83:                                               ; preds = %75
  %84 = tail call noalias ptr @malloc(i64 noundef %80) #33
  br label %85

85:                                               ; preds = %83, %81
  %86 = phi ptr [ %82, %81 ], [ %84, %83 ]
  store ptr %86, ptr %77, align 8, !tbaa !151
  store i32 %76, ptr %3, align 8, !tbaa !150
  br label %_ZL11Vec_IntPushP10Vec_Int_t_i.exit45

_ZL11Vec_IntPushP10Vec_Int_t_i.exit45:            ; preds = %._ZL11Vec_IntGrowP10Vec_Int_t_i.exit10_crit_edge.i39, %_ZL11Vec_IntGrowP10Vec_Int_t_i.exit.i44, %85
  %87 = phi ptr [ %.pre.i41, %._ZL11Vec_IntGrowP10Vec_Int_t_i.exit10_crit_edge.i39 ], [ %86, %85 ], [ %74, %_ZL11Vec_IntGrowP10Vec_Int_t_i.exit.i44 ]
  %88 = load i32, ptr %61, align 4, !tbaa !149
  %89 = add nsw i32 %88, 1
  store i32 %89, ptr %61, align 4, !tbaa !149
  %90 = sext i32 %88 to i64
  %91 = getelementptr inbounds i32, ptr %87, i64 %90
  store i32 %.val, ptr %91, align 4, !tbaa !6
  br label %92

92:                                               ; preds = %_ZL11Vec_IntPushP10Vec_Int_t_i.exit, %58, %_ZL11Vec_IntPushP10Vec_Int_t_i.exit45, %4
  %.0 = phi i32 [ %8, %4 ], [ %.val, %_ZL11Vec_IntPushP10Vec_Int_t_i.exit45 ], [ %.val, %58 ], [ %.val, %_ZL11Vec_IntPushP10Vec_Int_t_i.exit ]
  ret i32 %.0
}